target datalayout = "e-m:e-p270:32:32-p271:32:32-p272:64:64-i64:64-i128:128-f80:128-n8:16:32:64-S128"
target triple = "x86_64-pc-linux-gnu"

%struct.engineInfo = type { ptr, ptr, ptr }
%struct.engine = type { ptr, ptr, ptr, ptr, ptr, ptr, ptr, ptr }
%struct.functionInfo = type { ptr, ptr, ptr, ptr, i64 }
%struct.functionLibInfo = type { ptr, ptr, ptr, ptr }

; Function Attrs: nounwind uwtable
define internal void @engineFunctionDispose(ptr noundef %0, ptr noundef %1) #1 {
  %3 = alloca ptr, align 8
  %4 = alloca ptr, align 8
  %5 = alloca ptr, align 8
  %6 = alloca ptr, align 8
  store ptr %0, ptr %3, align 8, !tbaa !5
  store ptr %1, ptr %4, align 8, !tbaa !10
  %7 = load ptr, ptr %4, align 8, !tbaa !10
  %8 = icmp ne ptr %7, null
  br i1 %8, label %10, label %9

9:                                                ; preds = %2
  br label %41

10:                                               ; preds = %2
  call void @llvm.lifetime.start.p0(i64 8, ptr %5) #11
  %11 = load ptr, ptr %4, align 8, !tbaa !10
  store ptr %11, ptr %5, align 8, !tbaa !25
  %12 = load ptr, ptr %5, align 8, !tbaa !25
  %13 = getelementptr inbounds nuw %struct.functionInfo, ptr %12, i32 0, i32 0
  %14 = load ptr, ptr %13, align 8, !tbaa !27
  call void @sdsfree(ptr noundef %14)
  %15 = load ptr, ptr %5, align 8, !tbaa !25
  %16 = getelementptr inbounds nuw %struct.functionInfo, ptr %15, i32 0, i32 3
  %17 = load ptr, ptr %16, align 8, !tbaa !31
  %18 = icmp ne ptr %17, null
  br i1 %18, label %19, label %23

19:                                               ; preds = %10
  %20 = load ptr, ptr %5, align 8, !tbaa !25
  %21 = getelementptr inbounds nuw %struct.functionInfo, ptr %20, i32 0, i32 3
  %22 = load ptr, ptr %21, align 8, !tbaa !31
  call void @sdsfree(ptr noundef %22)
  br label %23

23:                                               ; preds = %19, %10
  call void @llvm.lifetime.start.p0(i64 8, ptr %6) #11
  %24 = load ptr, ptr %5, align 8, !tbaa !25
  %25 = getelementptr inbounds nuw %struct.functionInfo, ptr %24, i32 0, i32 2
  %26 = load ptr, ptr %25, align 8, !tbaa !32
  %27 = getelementptr inbounds nuw %struct.functionLibInfo, ptr %26, i32 0, i32 2
  %28 = load ptr, ptr %27, align 8, !tbaa !33
  %29 = getelementptr inbounds nuw %struct.engineInfo, ptr %28, i32 0, i32 1
  %30 = load ptr, ptr %29, align 8, !tbaa !19
  store ptr %30, ptr %6, align 8, !tbaa !35
  %31 = load ptr, ptr %6, align 8, !tbaa !35
  %32 = getelementptr inbounds nuw %struct.engine, ptr %31, i32 0, i32 6
  %33 = load ptr, ptr %32, align 8, !tbaa !36
  %34 = load ptr, ptr %6, align 8, !tbaa !35
  %35 = getelementptr inbounds nuw %struct.engine, ptr %34, i32 0, i32 0
  %36 = load ptr, ptr %35, align 8, !tbaa !22
  %37 = load ptr, ptr %5, align 8, !tbaa !25
  %38 = getelementptr inbounds nuw %struct.functionInfo, ptr %37, i32 0, i32 1
  %39 = load ptr, ptr %38, align 8, !tbaa !37
  call void %33(ptr noundef %36, ptr noundef %39)
  %40 = load ptr, ptr %5, align 8, !tbaa !25
  call void @zfree(ptr noundef %40)
  call void @llvm.lifetime.end.p0(i64 8, ptr %6) #11
  call void @llvm.lifetime.end.p0(i64 8, ptr %5) #11
  br label %41

41:                                               ; preds = %23, %9
  ret void
}