; Function Attrs: nounwind uwtable
define internal void @engineFunctionDispose(ptr readnone captures(none) %0, ptr noundef %1) #1 {
  %.not = icmp eq ptr %1, null
  br i1 %.not, label %20, label %3

3:                                                ; preds = %2
  %4 = load ptr, ptr %1, align 8, !tbaa !18
  tail call void @sdsfree(ptr noundef %4) #12
  %5 = getelementptr inbounds nuw i8, ptr %1, i64 24
  %6 = load ptr, ptr %5, align 8, !tbaa !22
  %.not11 = icmp eq ptr %6, null
  br i1 %.not11, label %8, label %7

7:                                                ; preds = %3
  tail call void @sdsfree(ptr noundef nonnull %6) #12
  br label %8

8:                                                ; preds = %7, %3
  %9 = getelementptr inbounds nuw i8, ptr %1, i64 16
  %10 = load ptr, ptr %9, align 8, !tbaa !23
  %11 = getelementptr inbounds nuw i8, ptr %10, i64 16
  %12 = load ptr, ptr %11, align 8, !tbaa !24
  %13 = getelementptr inbounds nuw i8, ptr %12, i64 8
  %14 = load ptr, ptr %13, align 8, !tbaa !14
  %15 = getelementptr inbounds nuw i8, ptr %14, i64 48
  %16 = load ptr, ptr %15, align 8, !tbaa !28
  %17 = load ptr, ptr %14, align 8, !tbaa !17
  %18 = getelementptr inbounds nuw i8, ptr %1, i64 8
  %19 = load ptr, ptr %18, align 8, !tbaa !29
  tail call void %16(ptr noundef %17, ptr noundef %19) #12
  tail call void @zfree(ptr noundef nonnull %1) #12
  br label %20

20:                                               ; preds = %2, %8
  ret void
}